; ModuleID = '10/1651.c'
source_filename = "10/1651.c"
target datalayout = "e-m:e-p270:32:32-p271:32:32-p272:64:64-i64:64-f80:128-n8:16:32:64-S128"
target triple = "x86_64-pc-linux-gnu"

@.str = private unnamed_addr constant [3 x i8] c"%d\00", align 1
@.str.1 = private unnamed_addr constant [5 x i8] c"%d%c\00", align 1

; Function Attrs: noinline nounwind uwtable
define dso_local i32 @main() #0 {
  %1 = alloca i32, align 4
  %2 = alloca i8, align 1
  %3 = alloca i32, align 4
  %4 = alloca i32, align 4
  %5 = alloca i32, align 4
  %6 = alloca [25 x i32], align 16
  %7 = alloca [25 x i32], align 16
  %8 = alloca i32, align 4
  %9 = alloca [25 x i32], align 16
  store i32 0, i32* %1, align 4
  %10 = getelementptr inbounds [25 x i32], [25 x i32]* %9, i64 0, i64 0
  store i32 1, i32* %10, align 16
  %11 = call i32 (i8*, ...) @__isoc99_scanf(i8* getelementptr inbounds ([3 x i8], [3 x i8]* @.str, i64 0, i64 0), i32* %8)
  store i32 0, i32* %3, align 4
  br label %12

12:                                               ; preds = %23, %0
  %13 = load i32, i32* %3, align 4
  %14 = sext i32 %13 to i64
  %15 = getelementptr inbounds [25 x i32], [25 x i32]* %6, i64 0, i64 %14
  %16 = call i32 (i8*, ...) @__isoc99_scanf(i8* getelementptr inbounds ([5 x i8], [5 x i8]* @.str.1, i64 0, i64 0), i32* %15, i8* %2)
  %17 = load i8, i8* %2, align 1
  %18 = sext i8 %17 to i32
  %19 = icmp ne i32 %18, 32
  br i1 %19, label %20, label %21

20:                                               ; preds = %12
  br label %26

21:                                               ; preds = %12
  br label %22

22:                                               ; preds = %21
  br label %23

23:                                               ; preds = %22
  %24 = load i32, i32* %3, align 4
  %25 = add nsw i32 %24, 1
  store i32 %25, i32* %3, align 4
  br label %12

26:                                               ; preds = %20
  store i32 0, i32* %3, align 4
  br label %27

27:                                               ; preds = %43, %26
  %28 = load i32, i32* %3, align 4
  %29 = load i32, i32* %8, align 4
  %30 = sub nsw i32 %29, 1
  %31 = icmp sle i32 %28, %30
  br i1 %31, label %32, label %46

32:                                               ; preds = %27
  %33 = load i32, i32* %8, align 4
  %34 = sub nsw i32 %33, 1
  %35 = load i32, i32* %3, align 4
  %36 = sub nsw i32 %34, %35
  %37 = sext i32 %36 to i64
  %38 = getelementptr inbounds [25 x i32], [25 x i32]* %6, i64 0, i64 %37
  %39 = load i32, i32* %38, align 4
  %40 = load i32, i32* %3, align 4
  %41 = sext i32 %40 to i64
  %42 = getelementptr inbounds [25 x i32], [25 x i32]* %7, i64 0, i64 %41
  store i32 %39, i32* %42, align 4
  br label %43

43:                                               ; preds = %32
  %44 = load i32, i32* %3, align 4
  %45 = add nsw i32 %44, 1
  store i32 %45, i32* %3, align 4
  br label %27

46:                                               ; preds = %27
  store i32 1, i32* %3, align 4
  br label %47

47:                                               ; preds = %100, %46
  %48 = load i32, i32* %3, align 4
  %49 = load i32, i32* %8, align 4
  %50 = sub nsw i32 %49, 1
  %51 = icmp sle i32 %48, %50
  br i1 %51, label %52, label %103

52:                                               ; preds = %47
  store i32 0, i32* %4, align 4
  %53 = load i32, i32* %3, align 4
  %54 = sext i32 %53 to i64
  %55 = getelementptr inbounds [25 x i32], [25 x i32]* %9, i64 0, i64 %54
  store i32 0, i32* %55, align 4
  br label %56

56:                                               ; preds = %91, %52
  %57 = load i32, i32* %4, align 4
  %58 = load i32, i32* %3, align 4
  %59 = sub nsw i32 %58, 1
  %60 = icmp sle i32 %57, %59
  br i1 %60, label %61, label %94

61:                                               ; preds = %56
  %62 = load i32, i32* %3, align 4
  %63 = sext i32 %62 to i64
  %64 = getelementptr inbounds [25 x i32], [25 x i32]* %7, i64 0, i64 %63
  %65 = load i32, i32* %64, align 4
  %66 = load i32, i32* %4, align 4
  %67 = sext i32 %66 to i64
  %68 = getelementptr inbounds [25 x i32], [25 x i32]* %7, i64 0, i64 %67
  %69 = load i32, i32* %68, align 4
  %70 = icmp sge i32 %65, %69
  br i1 %70, label %71, label %89

71:                                               ; preds = %61
  %72 = load i32, i32* %3, align 4
  %73 = sext i32 %72 to i64
  %74 = getelementptr inbounds [25 x i32], [25 x i32]* %9, i64 0, i64 %73
  %75 = load i32, i32* %74, align 4
  %76 = load i32, i32* %4, align 4
  %77 = sext i32 %76 to i64
  %78 = getelementptr inbounds [25 x i32], [25 x i32]* %9, i64 0, i64 %77
  %79 = load i32, i32* %78, align 4
  %80 = icmp sle i32 %75, %79
  br i1 %80, label %81, label %89

81:                                               ; preds = %71
  %82 = load i32, i32* %4, align 4
  %83 = sext i32 %82 to i64
  %84 = getelementptr inbounds [25 x i32], [25 x i32]* %9, i64 0, i64 %83
  %85 = load i32, i32* %84, align 4
  %86 = load i32, i32* %3, align 4
  %87 = sext i32 %86 to i64
  %88 = getelementptr inbounds [25 x i32], [25 x i32]* %9, i64 0, i64 %87
  store i32 %85, i32* %88, align 4
  br label %90

89:                                               ; preds = %71, %61
  br label %90

90:                                               ; preds = %89, %81
  br label %91

91:                                               ; preds = %90
  %92 = load i32, i32* %4, align 4
  %93 = add nsw i32 %92, 1
  store i32 %93, i32* %4, align 4
  br label %56

94:                                               ; preds = %56
  %95 = load i32, i32* %3, align 4
  %96 = sext i32 %95 to i64
  %97 = getelementptr inbounds [25 x i32], [25 x i32]* %9, i64 0, i64 %96
  %98 = load i32, i32* %97, align 4
  %99 = add nsw i32 %98, 1
  store i32 %99, i32* %97, align 4
  br label %100

100:                                              ; preds = %94
  %101 = load i32, i32* %3, align 4
  %102 = add nsw i32 %101, 1
  store i32 %102, i32* %3, align 4
  br label %47

103:                                              ; preds = %47
  store i32 0, i32* %3, align 4
  %104 = getelementptr inbounds [25 x i32], [25 x i32]* %9, i64 0, i64 0
  %105 = load i32, i32* %104, align 16
  store i32 %105, i32* %5, align 4
  br label %106

106:                                              ; preds = %125, %103
  %107 = load i32, i32* %3, align 4
  %108 = load i32, i32* %8, align 4
  %109 = sub nsw i32 %108, 1
  %110 = icmp sle i32 %107, %109
  br i1 %110, label %111, label %128

111:                                              ; preds = %106
  %112 = load i32, i32* %5, align 4
  %113 = load i32, i32* %3, align 4
  %114 = sext i32 %113 to i64
  %115 = getelementptr inbounds [25 x i32], [25 x i32]* %9, i64 0, i64 %114
  %116 = load i32, i32* %115, align 4
  %117 = icmp sle i32 %112, %116
  br i1 %117, label %118, label %123

118:                                              ; preds = %111
  %119 = load i32, i32* %3, align 4
  %120 = sext i32 %119 to i64
  %121 = getelementptr inbounds [25 x i32], [25 x i32]* %9, i64 0, i64 %120
  %122 = load i32, i32* %121, align 4
  store i32 %122, i32* %5, align 4
  br label %124

123:                                              ; preds = %111
  br label %124

124:                                              ; preds = %123, %118
  br label %125

125:                                              ; preds = %124
  %126 = load i32, i32* %3, align 4
  %127 = add nsw i32 %126, 1
  store i32 %127, i32* %3, align 4
  br label %106

128:                                              ; preds = %106
  %129 = load i32, i32* %5, align 4
  %130 = call i32 (i8*, ...) @printf(i8* getelementptr inbounds ([3 x i8], [3 x i8]* @.str, i64 0, i64 0), i32 %129)
  %131 = load i32, i32* %1, align 4
  ret i32 %131
}

declare dso_local i32 @__isoc99_scanf(i8*, ...) #1

declare dso_local i32 @printf(i8*, ...) #1


!llvm.module.flags = !{!0}
!llvm.ident = !{!1}

!0 = !{i32 1, !"wchar_size", i32 4}
!1 = !{!"clang version 10.0.0-4ubuntu1 "}
