; ModuleID = 'source-C-CXX/9/1651.c'
source_filename = "source-C-CXX/9/1651.c"
target datalayout = "e-m:e-p270:32:32-p271:32:32-p272:64:64-i64:64-f80:128-n8:16:32:64-S128"
target triple = "x86_64-pc-linux-gnu"

@.str = private unnamed_addr constant [3 x i8] c"%d\00", align 1
@.str.1 = private unnamed_addr constant [5 x i8] c"%d%c\00", align 1

; Function Attrs: nofree nounwind sspstrong uwtable
define dso_local i32 @main() local_unnamed_addr #0 {
  %1 = alloca i8, align 1
  %2 = alloca [25 x i32], align 16
  %3 = alloca [25 x i32], align 16
  %4 = alloca i32, align 4
  %5 = alloca [25 x i32], align 16
  call void @llvm.lifetime.start.p0i8(i64 1, i8* nonnull %1) #4
  %6 = bitcast [25 x i32]* %2 to i8*
  call void @llvm.lifetime.start.p0i8(i64 100, i8* nonnull %6) #4
  %7 = bitcast [25 x i32]* %3 to i8*
  call void @llvm.lifetime.start.p0i8(i64 100, i8* nonnull %7) #4
  %8 = bitcast i32* %4 to i8*
  call void @llvm.lifetime.start.p0i8(i64 4, i8* nonnull %8) #4
  %9 = bitcast [25 x i32]* %5 to i8*
  call void @llvm.lifetime.start.p0i8(i64 100, i8* nonnull %9) #4
  %10 = getelementptr inbounds [25 x i32], [25 x i32]* %5, i64 0, i64 0
  store i32 1, i32* %10, align 16, !tbaa !5
  %11 = call i32 (i8*, ...) @__isoc99_scanf(i8* getelementptr inbounds ([3 x i8], [3 x i8]* @.str, i64 0, i64 0), i32* nonnull %4)
  br label %12

12:                                               ; preds = %12, %0
  %13 = phi i64 [ %18, %12 ], [ 0, %0 ]
  %14 = getelementptr inbounds [25 x i32], [25 x i32]* %2, i64 0, i64 %13
  %15 = call i32 (i8*, ...) @__isoc99_scanf(i8* getelementptr inbounds ([5 x i8], [5 x i8]* @.str.1, i64 0, i64 0), i32* nonnull %14, i8* nonnull %1)
  %16 = load i8, i8* %1, align 1, !tbaa !9
  %17 = icmp eq i8 %16, 32
  %18 = add nuw i64 %13, 1
  br i1 %17, label %12, label %19

19:                                               ; preds = %12
  %20 = load i32, i32* %4, align 4, !tbaa !5
  %21 = icmp sgt i32 %20, 0
  br i1 %21, label %22, label %278

22:                                               ; preds = %19
  %23 = zext i32 %20 to i64
  %24 = icmp ult i32 %20, 8
  br i1 %24, label %107, label %25

25:                                               ; preds = %22
  %26 = add nsw i64 %23, -1
  %27 = add i32 %20, -1
  %28 = trunc i64 %26 to i32
  %29 = sub i32 %27, %28
  %30 = icmp sgt i32 %29, %27
  %31 = icmp ugt i64 %26, 4294967295
  %32 = or i1 %30, %31
  br i1 %32, label %107, label %33

33:                                               ; preds = %25
  %34 = and i64 %23, 4294967288
  %35 = trunc i64 %34 to i32
  %36 = add nsw i64 %34, -8
  %37 = lshr exact i64 %36, 3
  %38 = add nuw nsw i64 %37, 1
  %39 = and i64 %38, 1
  %40 = icmp eq i64 %36, 0
  br i1 %40, label %84, label %41

41:                                               ; preds = %33
  %42 = and i64 %38, 4611686018427387902
  br label %43

43:                                               ; preds = %43, %41
  %44 = phi i64 [ 0, %41 ], [ %81, %43 ]
  %45 = phi i64 [ %42, %41 ], [ %82, %43 ]
  %46 = trunc i64 %44 to i32
  %47 = xor i32 %46, -1
  %48 = add i32 %20, %47
  %49 = sext i32 %48 to i64
  %50 = getelementptr inbounds [25 x i32], [25 x i32]* %2, i64 0, i64 %49
  %51 = getelementptr inbounds i32, i32* %50, i64 -3
  %52 = bitcast i32* %51 to <4 x i32>*
  %53 = load <4 x i32>, <4 x i32>* %52, align 4, !tbaa !5
  %54 = shufflevector <4 x i32> %53, <4 x i32> poison, <4 x i32> <i32 3, i32 2, i32 1, i32 0>
  %55 = getelementptr inbounds i32, i32* %50, i64 -7
  %56 = bitcast i32* %55 to <4 x i32>*
  %57 = load <4 x i32>, <4 x i32>* %56, align 4, !tbaa !5
  %58 = shufflevector <4 x i32> %57, <4 x i32> poison, <4 x i32> <i32 3, i32 2, i32 1, i32 0>
  %59 = getelementptr inbounds [25 x i32], [25 x i32]* %3, i64 0, i64 %44
  %60 = bitcast i32* %59 to <4 x i32>*
  store <4 x i32> %54, <4 x i32>* %60, align 16, !tbaa !5
  %61 = getelementptr inbounds i32, i32* %59, i64 4
  %62 = bitcast i32* %61 to <4 x i32>*
  store <4 x i32> %58, <4 x i32>* %62, align 16, !tbaa !5
  %63 = or i64 %44, 8
  %64 = trunc i64 %63 to i32
  %65 = xor i32 %64, -1
  %66 = add i32 %20, %65
  %67 = sext i32 %66 to i64
  %68 = getelementptr inbounds [25 x i32], [25 x i32]* %2, i64 0, i64 %67
  %69 = getelementptr inbounds i32, i32* %68, i64 -3
  %70 = bitcast i32* %69 to <4 x i32>*
  %71 = load <4 x i32>, <4 x i32>* %70, align 4, !tbaa !5
  %72 = shufflevector <4 x i32> %71, <4 x i32> poison, <4 x i32> <i32 3, i32 2, i32 1, i32 0>
  %73 = getelementptr inbounds i32, i32* %68, i64 -7
  %74 = bitcast i32* %73 to <4 x i32>*
  %75 = load <4 x i32>, <4 x i32>* %74, align 4, !tbaa !5
  %76 = shufflevector <4 x i32> %75, <4 x i32> poison, <4 x i32> <i32 3, i32 2, i32 1, i32 0>
  %77 = getelementptr inbounds [25 x i32], [25 x i32]* %3, i64 0, i64 %63
  %78 = bitcast i32* %77 to <4 x i32>*
  store <4 x i32> %72, <4 x i32>* %78, align 16, !tbaa !5
  %79 = getelementptr inbounds i32, i32* %77, i64 4
  %80 = bitcast i32* %79 to <4 x i32>*
  store <4 x i32> %76, <4 x i32>* %80, align 16, !tbaa !5
  %81 = add nuw i64 %44, 16
  %82 = add i64 %45, -2
  %83 = icmp eq i64 %82, 0
  br i1 %83, label %84, label %43, !llvm.loop !10

84:                                               ; preds = %43, %33
  %85 = phi i64 [ 0, %33 ], [ %81, %43 ]
  %86 = icmp eq i64 %39, 0
  br i1 %86, label %105, label %87

87:                                               ; preds = %84
  %88 = trunc i64 %85 to i32
  %89 = xor i32 %88, -1
  %90 = add i32 %20, %89
  %91 = sext i32 %90 to i64
  %92 = getelementptr inbounds [25 x i32], [25 x i32]* %2, i64 0, i64 %91
  %93 = getelementptr inbounds i32, i32* %92, i64 -3
  %94 = bitcast i32* %93 to <4 x i32>*
  %95 = load <4 x i32>, <4 x i32>* %94, align 4, !tbaa !5
  %96 = shufflevector <4 x i32> %95, <4 x i32> poison, <4 x i32> <i32 3, i32 2, i32 1, i32 0>
  %97 = getelementptr inbounds i32, i32* %92, i64 -7
  %98 = bitcast i32* %97 to <4 x i32>*
  %99 = load <4 x i32>, <4 x i32>* %98, align 4, !tbaa !5
  %100 = shufflevector <4 x i32> %99, <4 x i32> poison, <4 x i32> <i32 3, i32 2, i32 1, i32 0>
  %101 = getelementptr inbounds [25 x i32], [25 x i32]* %3, i64 0, i64 %85
  %102 = bitcast i32* %101 to <4 x i32>*
  store <4 x i32> %96, <4 x i32>* %102, align 16, !tbaa !5
  %103 = getelementptr inbounds i32, i32* %101, i64 4
  %104 = bitcast i32* %103 to <4 x i32>*
  store <4 x i32> %100, <4 x i32>* %104, align 16, !tbaa !5
  br label %105

105:                                              ; preds = %84, %87
  %106 = icmp eq i64 %34, %23
  br i1 %106, label %127, label %107

107:                                              ; preds = %25, %22, %105
  %108 = phi i64 [ 0, %25 ], [ 0, %22 ], [ %34, %105 ]
  %109 = phi i32 [ 0, %25 ], [ 0, %22 ], [ %35, %105 ]
  %110 = xor i64 %108, -1
  %111 = and i64 %23, 1
  %112 = icmp eq i64 %111, 0
  br i1 %112, label %122, label %113

113:                                              ; preds = %107
  %114 = xor i32 %109, -1
  %115 = add i32 %20, %114
  %116 = sext i32 %115 to i64
  %117 = getelementptr inbounds [25 x i32], [25 x i32]* %2, i64 0, i64 %116
  %118 = load i32, i32* %117, align 4, !tbaa !5
  %119 = getelementptr inbounds [25 x i32], [25 x i32]* %3, i64 0, i64 %108
  store i32 %118, i32* %119, align 16, !tbaa !5
  %120 = or i64 %108, 1
  %121 = add nuw nsw i32 %109, 1
  br label %122

122:                                              ; preds = %113, %107
  %123 = phi i64 [ %108, %107 ], [ %120, %113 ]
  %124 = phi i32 [ %109, %107 ], [ %121, %113 ]
  %125 = sub nsw i64 0, %23
  %126 = icmp eq i64 %110, %125
  br i1 %126, label %127, label %131

127:                                              ; preds = %122, %131, %105
  %128 = icmp sgt i32 %20, 1
  br i1 %128, label %129, label %150

129:                                              ; preds = %127
  %130 = zext i32 %20 to i64
  br label %220

131:                                              ; preds = %122, %131
  %132 = phi i64 [ %147, %131 ], [ %123, %122 ]
  %133 = phi i32 [ %148, %131 ], [ %124, %122 ]
  %134 = xor i32 %133, -1
  %135 = add i32 %20, %134
  %136 = sext i32 %135 to i64
  %137 = getelementptr inbounds [25 x i32], [25 x i32]* %2, i64 0, i64 %136
  %138 = load i32, i32* %137, align 4, !tbaa !5
  %139 = getelementptr inbounds [25 x i32], [25 x i32]* %3, i64 0, i64 %132
  store i32 %138, i32* %139, align 4, !tbaa !5
  %140 = add nuw nsw i64 %132, 1
  %141 = sub i32 -2, %133
  %142 = add i32 %20, %141
  %143 = sext i32 %142 to i64
  %144 = getelementptr inbounds [25 x i32], [25 x i32]* %2, i64 0, i64 %143
  %145 = load i32, i32* %144, align 4, !tbaa !5
  %146 = getelementptr inbounds [25 x i32], [25 x i32]* %3, i64 0, i64 %140
  store i32 %145, i32* %146, align 4, !tbaa !5
  %147 = add nuw nsw i64 %132, 2
  %148 = add nuw nsw i32 %133, 2
  %149 = icmp eq i64 %147, %23
  br i1 %149, label %127, label %131, !llvm.loop !13

150:                                              ; preds = %263, %127
  br i1 %21, label %151, label %278

151:                                              ; preds = %150
  %152 = zext i32 %20 to i64
  %153 = icmp ult i32 %20, 8
  br i1 %153, label %217, label %154

154:                                              ; preds = %151
  %155 = and i64 %23, 4294967288
  %156 = add nsw i64 %155, -8
  %157 = lshr exact i64 %156, 3
  %158 = add nuw nsw i64 %157, 1
  %159 = and i64 %158, 1
  %160 = icmp eq i64 %156, 0
  br i1 %160, label %192, label %161

161:                                              ; preds = %154
  %162 = and i64 %158, 4611686018427387902
  br label %163

163:                                              ; preds = %163, %161
  %164 = phi i64 [ 0, %161 ], [ %189, %163 ]
  %165 = phi <4 x i32> [ <i32 1, i32 1, i32 1, i32 1>, %161 ], [ %187, %163 ]
  %166 = phi <4 x i32> [ <i32 1, i32 1, i32 1, i32 1>, %161 ], [ %188, %163 ]
  %167 = phi i64 [ %162, %161 ], [ %190, %163 ]
  %168 = getelementptr inbounds [25 x i32], [25 x i32]* %5, i64 0, i64 %164
  %169 = bitcast i32* %168 to <4 x i32>*
  %170 = load <4 x i32>, <4 x i32>* %169, align 16, !tbaa !5
  %171 = getelementptr inbounds i32, i32* %168, i64 4
  %172 = bitcast i32* %171 to <4 x i32>*
  %173 = load <4 x i32>, <4 x i32>* %172, align 16, !tbaa !5
  %174 = icmp sgt <4 x i32> %165, %170
  %175 = icmp sgt <4 x i32> %166, %173
  %176 = select <4 x i1> %174, <4 x i32> %165, <4 x i32> %170
  %177 = select <4 x i1> %175, <4 x i32> %166, <4 x i32> %173
  %178 = or i64 %164, 8
  %179 = getelementptr inbounds [25 x i32], [25 x i32]* %5, i64 0, i64 %178
  %180 = bitcast i32* %179 to <4 x i32>*
  %181 = load <4 x i32>, <4 x i32>* %180, align 16, !tbaa !5
  %182 = getelementptr inbounds i32, i32* %179, i64 4
  %183 = bitcast i32* %182 to <4 x i32>*
  %184 = load <4 x i32>, <4 x i32>* %183, align 16, !tbaa !5
  %185 = icmp sgt <4 x i32> %176, %181
  %186 = icmp sgt <4 x i32> %177, %184
  %187 = select <4 x i1> %185, <4 x i32> %176, <4 x i32> %181
  %188 = select <4 x i1> %186, <4 x i32> %177, <4 x i32> %184
  %189 = add nuw i64 %164, 16
  %190 = add i64 %167, -2
  %191 = icmp eq i64 %190, 0
  br i1 %191, label %192, label %163, !llvm.loop !14

192:                                              ; preds = %163, %154
  %193 = phi <4 x i32> [ undef, %154 ], [ %187, %163 ]
  %194 = phi <4 x i32> [ undef, %154 ], [ %188, %163 ]
  %195 = phi i64 [ 0, %154 ], [ %189, %163 ]
  %196 = phi <4 x i32> [ <i32 1, i32 1, i32 1, i32 1>, %154 ], [ %187, %163 ]
  %197 = phi <4 x i32> [ <i32 1, i32 1, i32 1, i32 1>, %154 ], [ %188, %163 ]
  %198 = icmp eq i64 %159, 0
  br i1 %198, label %210, label %199

199:                                              ; preds = %192
  %200 = getelementptr inbounds [25 x i32], [25 x i32]* %5, i64 0, i64 %195
  %201 = bitcast i32* %200 to <4 x i32>*
  %202 = load <4 x i32>, <4 x i32>* %201, align 16, !tbaa !5
  %203 = getelementptr inbounds i32, i32* %200, i64 4
  %204 = bitcast i32* %203 to <4 x i32>*
  %205 = load <4 x i32>, <4 x i32>* %204, align 16, !tbaa !5
  %206 = icmp sgt <4 x i32> %197, %205
  %207 = select <4 x i1> %206, <4 x i32> %197, <4 x i32> %205
  %208 = icmp sgt <4 x i32> %196, %202
  %209 = select <4 x i1> %208, <4 x i32> %196, <4 x i32> %202
  br label %210

210:                                              ; preds = %192, %199
  %211 = phi <4 x i32> [ %193, %192 ], [ %209, %199 ]
  %212 = phi <4 x i32> [ %194, %192 ], [ %207, %199 ]
  %213 = icmp sgt <4 x i32> %211, %212
  %214 = select <4 x i1> %213, <4 x i32> %211, <4 x i32> %212
  %215 = call i32 @llvm.vector.reduce.smax.v4i32(<4 x i32> %214)
  %216 = icmp eq i64 %155, %23
  br i1 %216, label %278, label %217

217:                                              ; preds = %151, %210
  %218 = phi i64 [ 0, %151 ], [ %155, %210 ]
  %219 = phi i32 [ 1, %151 ], [ %215, %210 ]
  br label %269

220:                                              ; preds = %129, %263
  %221 = phi i64 [ 0, %129 ], [ %268, %263 ]
  %222 = phi i64 [ 1, %129 ], [ %266, %263 ]
  %223 = add i64 %221, 1
  %224 = getelementptr inbounds [25 x i32], [25 x i32]* %5, i64 0, i64 %222
  store i32 0, i32* %224, align 4, !tbaa !5
  %225 = getelementptr inbounds [25 x i32], [25 x i32]* %3, i64 0, i64 %222
  %226 = load i32, i32* %225, align 4, !tbaa !5
  %227 = and i64 %223, 1
  %228 = icmp eq i64 %221, 0
  br i1 %228, label %249, label %229

229:                                              ; preds = %220
  %230 = and i64 %223, -2
  br label %231

231:                                              ; preds = %286, %229
  %232 = phi i32 [ 0, %229 ], [ %287, %286 ]
  %233 = phi i64 [ 0, %229 ], [ %288, %286 ]
  %234 = phi i64 [ %230, %229 ], [ %289, %286 ]
  %235 = getelementptr inbounds [25 x i32], [25 x i32]* %3, i64 0, i64 %233
  %236 = load i32, i32* %235, align 8, !tbaa !5
  %237 = icmp slt i32 %226, %236
  br i1 %237, label %243, label %238

238:                                              ; preds = %231
  %239 = getelementptr inbounds [25 x i32], [25 x i32]* %5, i64 0, i64 %233
  %240 = load i32, i32* %239, align 8, !tbaa !5
  %241 = icmp sgt i32 %232, %240
  br i1 %241, label %243, label %242

242:                                              ; preds = %238
  store i32 %240, i32* %224, align 4, !tbaa !5
  br label %243

243:                                              ; preds = %242, %238, %231
  %244 = phi i32 [ %240, %242 ], [ %232, %238 ], [ %232, %231 ]
  %245 = or i64 %233, 1
  %246 = getelementptr inbounds [25 x i32], [25 x i32]* %3, i64 0, i64 %245
  %247 = load i32, i32* %246, align 4, !tbaa !5
  %248 = icmp slt i32 %226, %247
  br i1 %248, label %286, label %281

249:                                              ; preds = %286, %220
  %250 = phi i32 [ undef, %220 ], [ %287, %286 ]
  %251 = phi i32 [ 0, %220 ], [ %287, %286 ]
  %252 = phi i64 [ 0, %220 ], [ %288, %286 ]
  %253 = icmp eq i64 %227, 0
  br i1 %253, label %263, label %254

254:                                              ; preds = %249
  %255 = getelementptr inbounds [25 x i32], [25 x i32]* %3, i64 0, i64 %252
  %256 = load i32, i32* %255, align 4, !tbaa !5
  %257 = icmp slt i32 %226, %256
  br i1 %257, label %263, label %258

258:                                              ; preds = %254
  %259 = getelementptr inbounds [25 x i32], [25 x i32]* %5, i64 0, i64 %252
  %260 = load i32, i32* %259, align 4, !tbaa !5
  %261 = icmp sgt i32 %251, %260
  br i1 %261, label %263, label %262

262:                                              ; preds = %258
  store i32 %260, i32* %224, align 4, !tbaa !5
  br label %263

263:                                              ; preds = %262, %258, %254, %249
  %264 = phi i32 [ %250, %249 ], [ %260, %262 ], [ %251, %258 ], [ %251, %254 ]
  %265 = add nsw i32 %264, 1
  store i32 %265, i32* %224, align 4, !tbaa !5
  %266 = add nuw nsw i64 %222, 1
  %267 = icmp eq i64 %266, %130
  %268 = add i64 %221, 1
  br i1 %267, label %150, label %220, !llvm.loop !15

269:                                              ; preds = %217, %269
  %270 = phi i64 [ %276, %269 ], [ %218, %217 ]
  %271 = phi i32 [ %275, %269 ], [ %219, %217 ]
  %272 = getelementptr inbounds [25 x i32], [25 x i32]* %5, i64 0, i64 %270
  %273 = load i32, i32* %272, align 4, !tbaa !5
  %274 = icmp sgt i32 %271, %273
  %275 = select i1 %274, i32 %271, i32 %273
  %276 = add nuw nsw i64 %270, 1
  %277 = icmp eq i64 %276, %152
  br i1 %277, label %278, label %269, !llvm.loop !16

278:                                              ; preds = %269, %210, %19, %150
  %279 = phi i32 [ 1, %150 ], [ 1, %19 ], [ %215, %210 ], [ %275, %269 ]
  %280 = call i32 (i8*, ...) @printf(i8* nonnull dereferenceable(1) getelementptr inbounds ([3 x i8], [3 x i8]* @.str, i64 0, i64 0), i32 %279)
  call void @llvm.lifetime.end.p0i8(i64 100, i8* nonnull %9) #4
  call void @llvm.lifetime.end.p0i8(i64 4, i8* nonnull %8) #4
  call void @llvm.lifetime.end.p0i8(i64 100, i8* nonnull %7) #4
  call void @llvm.lifetime.end.p0i8(i64 100, i8* nonnull %6) #4
  call void @llvm.lifetime.end.p0i8(i64 1, i8* nonnull %1) #4
  ret i32 0

281:                                              ; preds = %243
  %282 = getelementptr inbounds [25 x i32], [25 x i32]* %5, i64 0, i64 %245
  %283 = load i32, i32* %282, align 4, !tbaa !5
  %284 = icmp sgt i32 %244, %283
  br i1 %284, label %286, label %285

285:                                              ; preds = %281
  store i32 %283, i32* %224, align 4, !tbaa !5
  br label %286

286:                                              ; preds = %285, %281, %243
  %287 = phi i32 [ %283, %285 ], [ %244, %281 ], [ %244, %243 ]
  %288 = add nuw nsw i64 %233, 2
  %289 = add i64 %234, -2
  %290 = icmp eq i64 %289, 0
  br i1 %290, label %249, label %231, !llvm.loop !18
}

; Function Attrs: argmemonly mustprogress nofree nosync nounwind willreturn
declare void @llvm.lifetime.start.p0i8(i64 immarg, i8* nocapture) #1

; Function Attrs: nofree nounwind
declare noundef i32 @__isoc99_scanf(i8* nocapture noundef readonly, ...) local_unnamed_addr #2

; Function Attrs: nofree nounwind
declare noundef i32 @printf(i8* nocapture noundef readonly, ...) local_unnamed_addr #2

; Function Attrs: argmemonly mustprogress nofree nosync nounwind willreturn
declare void @llvm.lifetime.end.p0i8(i64 immarg, i8* nocapture) #1

; Function Attrs: nofree nosync nounwind readnone willreturn
declare i32 @llvm.vector.reduce.smax.v4i32(<4 x i32>) #3


!llvm.module.flags = !{!0, !1, !2, !3}
!llvm.ident = !{!4}

!0 = !{i32 1, !"wchar_size", i32 4}
!1 = !{i32 7, !"PIC Level", i32 2}
!2 = !{i32 7, !"PIE Level", i32 2}
!3 = !{i32 7, !"uwtable", i32 1}
!4 = !{!"clang version 13.0.0"}
!5 = !{!6, !6, i64 0}
!6 = !{!"int", !7, i64 0}
!7 = !{!"omnipotent char", !8, i64 0}
!8 = !{!"Simple C/C++ TBAA"}
!9 = !{!7, !7, i64 0}
!10 = distinct !{!10, !11, !12}
!11 = !{!"llvm.loop.mustprogress"}
!12 = !{!"llvm.loop.isvectorized", i32 1}
!13 = distinct !{!13, !11, !12}
!14 = distinct !{!14, !11, !12}
!15 = distinct !{!15, !11}
!16 = distinct !{!16, !11, !17, !12}
!17 = !{!"llvm.loop.unroll.runtime.disable"}
!18 = distinct !{!18, !11}
